Certificate:
    Data:
        Version: 3 (0x2)
        Serial Number: 0 (0x0)
    Signature Algorithm: ecdsa-with-SHA256
        Issuer: C=JP, CN=CA
        Validity
            Not Before: Sep  6 09:26:43 2018 GMT
            Not After : Sep  6 09:26:43 2019 GMT
        Subject: C=JP, CN=example.com
        Subject Public Key Info:
            Public Key Algorithm: id-ecPublicKey
                Public-Key: (256 bit)
                pub: 
                    04:da:f9:21:7e:f1:57:83:ea:56:64:38:c7:24:70:
                    59:c3:c0:9a:42:56:3b:ce:0d:cd:7d:5b:31:3d:eb:
                    30:33:76:ea:8e:39:43:89:7d:c9:fa:51:d1:65:59:
                    4c:1a:f5:ce:8f:c4:fb:88:75:64:21:f5:40:8b:89:
                    66:45:30:e6:91
                ASN1 OID: prime256v1
                NIST CURVE: P-256
        X509v3 extensions:
            X509v3 Basic Constraints: 
                CA:FALSE
            Netscape Comment: 
                OpenSSL Generated Certificate
            X509v3 Subject Key Identifier: 
                4B:DA:43:8D:41:EB:B1:45:3C:02:03:AD:93:5B:BC:A4:59:BE:C5:24
            X509v3 Authority Key Identifier: 
                keyid:E5:38:1E:EC:60:E5:9B:7C:FE:91:D3:FF:78:C4:11:F9:D2:1A:81:50

            X509v3 Extended Key Usage: 
                TLS Web Server Authentication, TLS Web Client Authentication
    Signature Algorithm: ecdsa-with-SHA256
         30:45:02:21:00:83:67:2c:07:9e:f2:89:d4:c9:11:d9:87:78:
         26:50:58:8d:57:3b:41:7f:7a:56:3a:5f:49:b1:45:bc:d4:44:
         36:02:20:08:02:ed:f9:34:fd:c9:1e:3f:4d:71:3e:87:9f:24:
         03:44:96:32:7a:17:e2:11:61:3b:ec:f8:33:ad:c2:b3:66
-----BEGIN CERTIFICATE-----
MIIByDCCAW6gAwIBAgIBADAKBggqhkjOPQQDAjAaMQswCQYDVQQGEwJKUDELMAkG
A1UEAxMCQ0EwHhcNMTgwOTA2MDkyNjQzWhcNMTkwOTA2MDkyNjQzWjAjMQswCQYD
VQQGEwJKUDEUMBIGA1UEAxMLZXhhbXBsZS5jb20wWTATBgcqhkjOPQIBBggqhkjO
PQMBBwNCAATa+SF+8VeD6lZkOMckcFnDwJpCVjvODc19WzE96zAzduqOOUOJfcn6
UdFlWUwa9c6PxPuIdWQh9UCLiWZFMOaRo4GbMIGYMAkGA1UdEwQCMAAwLAYJYIZI
AYb4QgENBB8WHU9wZW5TU0wgR2VuZXJhdGVkIENlcnRpZmljYXRlMB0GA1UdDgQW
BBRL2kONQeuxRTwCA62TW7ykWb7FJDAfBgNVHSMEGDAWgBTlOB7sYOWbfP6R0/94
xBH50hqBUDAdBgNVHSUEFjAUBggrBgEFBQcDAQYIKwYBBQUHAwIwCgYIKoZIzj0E
AwIDSAAwRQIhAINnLAee8onUyRHZh3gmUFiNVztBf3pWOl9JsUW81EQ2AiAIAu35
NP3JHj9NcT6HnyQDRJYyehfiEWE77PgzrcKzZg==
-----END CERTIFICATE-----
